target datalayout = "e-m:e-p270:32:32-p271:32:32-p272:64:64-i64:64-i128:128-f80:128-n8:16:32:64-S128"
target triple = "x86_64-pc-linux-gnu"

%struct.H5L_trav_gv_t = type { i64, ptr }

@.str = private unnamed_addr constant [100 x i8] c"generated/home/dtcxzyw/WorkSpace/Projects/compilers/llvm-opt-benchmark/bench/hdf5/hdf5/src/H5Lint.c\00", align 1
@H5E_LINK_g = external global i64, align 8
@H5E_NOTFOUND_g = external global i64, align 8
@__func__.H5L__get_val = private unnamed_addr constant [13 x i8] c"H5L__get_val\00", align 1
@.str.11 = private unnamed_addr constant [19 x i8] c"name doesn't exist\00", align 1

; Function Attrs: nounwind uwtable
define i32 @H5L__get_val(ptr noundef %0, ptr noundef %1, ptr noundef %2, i64 noundef %3) #0 {
  %5 = alloca ptr, align 8
  %6 = alloca ptr, align 8
  %7 = alloca ptr, align 8
  %8 = alloca i64, align 8
  %9 = alloca %struct.H5L_trav_gv_t, align 8
  %10 = alloca i32, align 4
  %11 = alloca i8, align 1
  store ptr %0, ptr %5, align 8
  store ptr %1, ptr %6, align 8
  store ptr %2, ptr %7, align 8
  store i64 %3, ptr %8, align 8
  store i32 0, ptr %10, align 4
  store i8 0, ptr %11, align 1
  %12 = load i64, ptr %8, align 8
  %13 = getelementptr inbounds %struct.H5L_trav_gv_t, ptr %9, i32 0, i32 0
  store i64 %12, ptr %13, align 8
  %14 = load ptr, ptr %7, align 8
  %15 = getelementptr inbounds %struct.H5L_trav_gv_t, ptr %9, i32 0, i32 1
  store ptr %14, ptr %15, align 8
  %16 = load ptr, ptr %5, align 8
  %17 = load ptr, ptr %6, align 8
  %18 = call i32 @H5G_traverse(ptr noundef %16, ptr noundef %17, i32 noundef 5, ptr noundef @H5L__get_val_cb, ptr noundef %9)
  %19 = icmp slt i32 %18, 0
  br i1 %19, label %20, label %35

20:                                               ; preds = %4
  br label %21

21:                                               ; preds = %20
  br label %22

22:                                               ; preds = %21
  br label %23

23:                                               ; preds = %22
  %24 = load i64, ptr @H5E_LINK_g, align 8
  %25 = load i64, ptr @H5E_NOTFOUND_g, align 8
  %26 = call i32 (ptr, ptr, i32, i64, i64, ptr, ...) @H5E_printf_stack(ptr noundef @.str, ptr noundef @__func__.H5L__get_val, i32 noundef 1028, i64 noundef %24, i64 noundef %25, ptr noundef @.str.11)
  br label %27

27:                                               ; preds = %23
  store i8 1, ptr %11, align 1
  %28 = load i8, ptr %11, align 1
  %29 = trunc i8 %28 to i1
  %30 = zext i1 %29 to i8
  store i8 %30, ptr %11, align 1
  br label %31

31:                                               ; preds = %27
  br label %32

32:                                               ; preds = %31
  store i32 -1, ptr %10, align 4
  br label %36

33:                                               ; No predecessors!
  br label %34

34:                                               ; preds = %33
  br label %35

35:                                               ; preds = %34, %4
  br label %36

36:                                               ; preds = %35, %32
  %37 = load i32, ptr %10, align 4
  ret i32 %37
}