; Function Attrs: nounwind uwtable
define range(i32 -1, 1) i32 @H5L__get_val(ptr noundef %0, ptr noundef %1, ptr noundef %2, i64 noundef %3) local_unnamed_addr #0 {
  %5 = alloca %struct.H5L_trav_gv_t, align 8
  store i64 %3, ptr %5, align 8
  %6 = getelementptr inbounds i8, ptr %5, i64 8
  store ptr %2, ptr %6, align 8
  %7 = call i32 @H5G_traverse(ptr noundef %0, ptr noundef %1, i32 noundef 5, ptr noundef nonnull @H5L__get_val_cb, ptr noundef nonnull %5) #10
  %8 = icmp slt i32 %7, 0
  br i1 %8, label %9, label %13

9:                                                ; preds = %4
  %10 = load i64, ptr @H5E_LINK_g, align 8
  %11 = load i64, ptr @H5E_NOTFOUND_g, align 8
  %12 = call i32 (ptr, ptr, i32, i64, i64, ptr, ...) @H5E_printf_stack(ptr noundef nonnull @.str, ptr noundef nonnull @__func__.H5L__get_val, i32 noundef 1028, i64 noundef %10, i64 noundef %11, ptr noundef nonnull @.str.11) #10
  br label %13

13:                                               ; preds = %4, %9
  %.0 = phi i32 [ -1, %9 ], [ 0, %4 ]
  ret i32 %.0
}